target datalayout = "e-m:e-p270:32:32-p271:32:32-p272:64:64-i64:64-i128:128-f80:128-n8:16:32:64-S128"
target triple = "x86_64-pc-linux-gnu"

%struct.Scl_Item_t_ = type { i32, i32, %struct.Scl_Pair_t_, %struct.Scl_Pair_t_, %struct.Scl_Pair_t_, i32, i32 }
%struct.Scl_Pair_t_ = type { i32, i32 }
%struct.Scl_Tree_t_ = type { ptr, ptr, i64, i32, i32, i32, ptr, ptr, i64, ptr }

@.str.74 = private unnamed_addr constant [7 x i8] c"timing\00", align 1
@.str.75 = private unnamed_addr constant [12 x i8] c"related_pin\00", align 1

; Function Attrs: nounwind uwtable
define internal i32 @Scl_LibertyCompare(ptr noundef %0, i64 %1, ptr noundef %2) #0 {
  %4 = alloca %struct.Scl_Pair_t_, align 4
  %5 = alloca ptr, align 8
  %6 = alloca ptr, align 8
  store i64 %1, ptr %4, align 4
  store ptr %0, ptr %5, align 8
  store ptr %2, ptr %6, align 8
  %7 = load ptr, ptr %5, align 8
  %8 = getelementptr inbounds %struct.Scl_Tree_t_, ptr %7, i32 0, i32 1
  %9 = load ptr, ptr %8, align 8
  %10 = getelementptr inbounds %struct.Scl_Pair_t_, ptr %4, i32 0, i32 0
  %11 = load i32, ptr %10, align 4
  %12 = sext i32 %11 to i64
  %13 = getelementptr inbounds i8, ptr %9, i64 %12
  %14 = load ptr, ptr %6, align 8
  %15 = getelementptr inbounds %struct.Scl_Pair_t_, ptr %4, i32 0, i32 1
  %16 = load i32, ptr %15, align 4
  %17 = getelementptr inbounds %struct.Scl_Pair_t_, ptr %4, i32 0, i32 0
  %18 = load i32, ptr %17, align 4
  %19 = sub nsw i32 %16, %18
  %20 = sext i32 %19 to i64
  %21 = call i32 @strncmp(ptr noundef %13, ptr noundef %14, i64 noundef %20) #11
  %22 = icmp ne i32 %21, 0
  br i1 %22, label %33, label %23

23:                                               ; preds = %3
  %24 = load ptr, ptr %6, align 8
  %25 = call i64 @strlen(ptr noundef %24) #11
  %26 = trunc i64 %25 to i32
  %27 = getelementptr inbounds %struct.Scl_Pair_t_, ptr %4, i32 0, i32 1
  %28 = load i32, ptr %27, align 4
  %29 = getelementptr inbounds %struct.Scl_Pair_t_, ptr %4, i32 0, i32 0
  %30 = load i32, ptr %29, align 4
  %31 = sub nsw i32 %28, %30
  %32 = icmp ne i32 %26, %31
  br label %33

33:                                               ; preds = %23, %3
  %34 = phi i1 [ true, %3 ], [ %32, %23 ]
  %35 = zext i1 %34 to i32
  ret i32 %35
}

; Function Attrs: nounwind uwtable
define internal ptr @Scl_LibertyItem(ptr noundef %0, i32 noundef %1) #0 {
  %3 = alloca ptr, align 8
  %4 = alloca i32, align 4
  store ptr %0, ptr %3, align 8
  store i32 %1, ptr %4, align 4
  %5 = load i32, ptr %4, align 4
  %6 = icmp slt i32 %5, 0
  br i1 %6, label %7, label %8

7:                                                ; preds = %2
  br label %15

8:                                                ; preds = %2
  %9 = load ptr, ptr %3, align 8
  %10 = getelementptr inbounds %struct.Scl_Tree_t_, ptr %9, i32 0, i32 6
  %11 = load ptr, ptr %10, align 8
  %12 = load i32, ptr %4, align 4
  %13 = sext i32 %12 to i64
  %14 = getelementptr inbounds %struct.Scl_Item_t_, ptr %11, i64 %13
  br label %15

15:                                               ; preds = %8, %7
  %16 = phi ptr [ null, %7 ], [ %14, %8 ]
  ret ptr %16
}

; Function Attrs: nounwind uwtable
define ptr @Scl_LibertyReadPinTiming(ptr noundef %0, ptr noundef %1, ptr noundef %2) #0 {
  %4 = alloca ptr, align 8
  %5 = alloca ptr, align 8
  %6 = alloca ptr, align 8
  %7 = alloca ptr, align 8
  %8 = alloca ptr, align 8
  %9 = alloca ptr, align 8
  store ptr %0, ptr %5, align 8
  store ptr %1, ptr %6, align 8
  store ptr %2, ptr %7, align 8
  %10 = load ptr, ptr %5, align 8
  %11 = load ptr, ptr %6, align 8
  %12 = getelementptr inbounds %struct.Scl_Item_t_, ptr %11, i32 0, i32 6
  %13 = load i32, ptr %12, align 4
  %14 = call ptr @Scl_LibertyItem(ptr noundef %10, i32 noundef %13)
  store ptr %14, ptr %8, align 8
  br label %15

15:                                               ; preds = %64, %3
  %16 = load ptr, ptr %8, align 8
  %17 = icmp ne ptr %16, null
  br i1 %17, label %18, label %70

18:                                               ; preds = %15
  %19 = load ptr, ptr %5, align 8
  %20 = load ptr, ptr %8, align 8
  %21 = getelementptr inbounds %struct.Scl_Item_t_, ptr %20, i32 0, i32 2
  %22 = load i64, ptr %21, align 4
  %23 = call i32 @Scl_LibertyCompare(ptr noundef %19, i64 %22, ptr noundef @.str.74)
  %24 = icmp ne i32 %23, 0
  br i1 %24, label %25, label %26

25:                                               ; preds = %18
  br label %63

26:                                               ; preds = %18
  %27 = load ptr, ptr %5, align 8
  %28 = load ptr, ptr %8, align 8
  %29 = getelementptr inbounds %struct.Scl_Item_t_, ptr %28, i32 0, i32 6
  %30 = load i32, ptr %29, align 4
  %31 = call ptr @Scl_LibertyItem(ptr noundef %27, i32 noundef %30)
  store ptr %31, ptr %9, align 8
  br label %32

32:                                               ; preds = %56, %26
  %33 = load ptr, ptr %9, align 8
  %34 = icmp ne ptr %33, null
  br i1 %34, label %35, label %62

35:                                               ; preds = %32
  %36 = load ptr, ptr %5, align 8
  %37 = load ptr, ptr %9, align 8
  %38 = getelementptr inbounds %struct.Scl_Item_t_, ptr %37, i32 0, i32 2
  %39 = load i64, ptr %38, align 4
  %40 = call i32 @Scl_LibertyCompare(ptr noundef %36, i64 %39, ptr noundef @.str.75)
  %41 = icmp ne i32 %40, 0
  br i1 %41, label %42, label %43

42:                                               ; preds = %35
  br label %55

43:                                               ; preds = %35
  %44 = load ptr, ptr %5, align 8
  %45 = load ptr, ptr %9, align 8
  %46 = getelementptr inbounds %struct.Scl_Item_t_, ptr %45, i32 0, i32 3
  %47 = load i64, ptr %46, align 4
  %48 = call ptr @Scl_LibertyReadString(ptr noundef %44, i64 %47)
  %49 = load ptr, ptr %7, align 8
  %50 = call i32 @strcmp(ptr noundef %48, ptr noundef %49) #11
  %51 = icmp ne i32 %50, 0
  br i1 %51, label %54, label %52

52:                                               ; preds = %43
  %53 = load ptr, ptr %8, align 8
  store ptr %53, ptr %4, align 8
  br label %71

54:                                               ; preds = %43
  br label %55

55:                                               ; preds = %54, %42
  br label %56

56:                                               ; preds = %55
  %57 = load ptr, ptr %5, align 8
  %58 = load ptr, ptr %9, align 8
  %59 = getelementptr inbounds %struct.Scl_Item_t_, ptr %58, i32 0, i32 5
  %60 = load i32, ptr %59, align 4
  %61 = call ptr @Scl_LibertyItem(ptr noundef %57, i32 noundef %60)
  store ptr %61, ptr %9, align 8
  br label %32, !llvm.loop !53

62:                                               ; preds = %32
  br label %63

63:                                               ; preds = %62, %25
  br label %64

64:                                               ; preds = %63
  %65 = load ptr, ptr %5, align 8
  %66 = load ptr, ptr %8, align 8
  %67 = getelementptr inbounds %struct.Scl_Item_t_, ptr %66, i32 0, i32 5
  %68 = load i32, ptr %67, align 4
  %69 = call ptr @Scl_LibertyItem(ptr noundef %65, i32 noundef %68)
  store ptr %69, ptr %8, align 8
  br label %15, !llvm.loop !54

70:                                               ; preds = %15
  store ptr null, ptr %4, align 8
  br label %71

71:                                               ; preds = %70, %52
  %72 = load ptr, ptr %4, align 8
  ret ptr %72
}