; Function Attrs: nounwind uwtable
define ptr @Scl_LibertyReadPinTiming(ptr noundef readonly captures(none) %0, ptr noundef readonly captures(none) %1, ptr noundef readonly captures(none) %2) local_unnamed_addr #4 {
  %4 = getelementptr inbounds nuw i8, ptr %1, i64 36
  %5 = load i32, ptr %4, align 4
  %6 = icmp slt i32 %5, 0
  br i1 %6, label %.loopexit, label %Scl_LibertyItem.exit

Scl_LibertyItem.exit:                             ; preds = %3
  %7 = getelementptr inbounds nuw i8, ptr %0, i64 40
  %8 = load ptr, ptr %7, align 8
  %.not45 = icmp eq ptr %8, null
  br i1 %.not45, label %.loopexit, label %.lr.ph48

.lr.ph48:                                         ; preds = %Scl_LibertyItem.exit
  %9 = zext nneg i32 %5 to i64
  %10 = getelementptr inbounds nuw %struct.Scl_Item_t_, ptr %8, i64 %9
  %11 = getelementptr i8, ptr %0, i64 8
  %12 = getelementptr inbounds nuw i8, ptr %0, i64 40
  br label %13

13:                                               ; preds = %.lr.ph48, %Scl_LibertyItem.exit34
  %.01946 = phi ptr [ %10, %.lr.ph48 ], [ %51, %Scl_LibertyItem.exit34 ]
  %14 = getelementptr inbounds nuw i8, ptr %.01946, i64 8
  %15 = load i64, ptr %14, align 4
  %.val25 = load ptr, ptr %11, align 8
  %.sroa.0.0.extract.trunc.i = trunc i64 %15 to i32
  %.sroa.4.0.extract.shift.i = lshr i64 %15, 32
  %.sroa.4.0.extract.trunc.i = trunc nuw i64 %.sroa.4.0.extract.shift.i to i32
  %sext.i = shl i64 %15, 32
  %16 = ashr exact i64 %sext.i, 32
  %17 = getelementptr inbounds i8, ptr %.val25, i64 %16
  %18 = sub nsw i32 %.sroa.4.0.extract.trunc.i, %.sroa.0.0.extract.trunc.i
  %19 = sext i32 %18 to i64
  %20 = tail call i32 @strncmp(ptr noundef readonly %17, ptr noundef nonnull @.str.74, i64 noundef %19) #30
  %.not.i = icmp eq i32 %20, 0
  %.not37 = icmp eq i32 %18, 6
  %or.cond = and i1 %.not.i, %.not37
  br i1 %or.cond, label %21, label %Scl_LibertyCompare.exit.thread

21:                                               ; preds = %13
  %22 = getelementptr inbounds nuw i8, ptr %.01946, i64 36
  %23 = load i32, ptr %22, align 4
  %24 = icmp slt i32 %23, 0
  br i1 %24, label %Scl_LibertyCompare.exit.thread, label %Scl_LibertyItem.exit26

Scl_LibertyItem.exit26:                           ; preds = %21
  %25 = load ptr, ptr %12, align 8
  %.not2243 = icmp eq ptr %25, null
  br i1 %.not2243, label %Scl_LibertyCompare.exit.thread, label %.lr.ph.preheader

.lr.ph.preheader:                                 ; preds = %Scl_LibertyItem.exit26
  %26 = zext nneg i32 %23 to i64
  %27 = getelementptr inbounds nuw %struct.Scl_Item_t_, ptr %25, i64 %26
  br label %.lr.ph

.lr.ph:                                           ; preds = %.lr.ph.preheader, %Scl_LibertyItem.exit33
  %.044 = phi ptr [ %45, %Scl_LibertyItem.exit33 ], [ %27, %.lr.ph.preheader ]
  %28 = getelementptr inbounds nuw i8, ptr %.044, i64 8
  %29 = load i64, ptr %28, align 4
  %.val = load ptr, ptr %11, align 8
  %.sroa.0.0.extract.trunc.i27 = trunc i64 %29 to i32
  %.sroa.4.0.extract.shift.i28 = lshr i64 %29, 32
  %.sroa.4.0.extract.trunc.i29 = trunc nuw i64 %.sroa.4.0.extract.shift.i28 to i32
  %sext.i30 = shl i64 %29, 32
  %30 = ashr exact i64 %sext.i30, 32
  %31 = getelementptr inbounds i8, ptr %.val, i64 %30
  %32 = sub nsw i32 %.sroa.4.0.extract.trunc.i29, %.sroa.0.0.extract.trunc.i27
  %33 = sext i32 %32 to i64
  %34 = tail call i32 @strncmp(ptr noundef readonly %31, ptr noundef nonnull @.str.75, i64 noundef %33) #30
  %.not.i31 = icmp eq i32 %34, 0
  %.not38 = icmp eq i32 %32, 11
  %or.cond39 = and i1 %.not.i31, %.not38
  br i1 %or.cond39, label %35, label %Scl_LibertyCompare.exit32.thread

35:                                               ; preds = %.lr.ph
  %36 = getelementptr inbounds nuw i8, ptr %.044, i64 16
  %37 = load i64, ptr %36, align 4
  %38 = tail call ptr @Scl_LibertyReadString(ptr noundef nonnull %0, i64 %37)
  %39 = tail call i32 @strcmp(ptr noundef nonnull dereferenceable(1) %38, ptr noundef nonnull dereferenceable(1) %2) #30
  %.not24 = icmp eq i32 %39, 0
  br i1 %.not24, label %.loopexit, label %Scl_LibertyCompare.exit32.thread

Scl_LibertyCompare.exit32.thread:                 ; preds = %.lr.ph, %35
  %40 = getelementptr inbounds nuw i8, ptr %.044, i64 32
  %41 = load i32, ptr %40, align 4
  %42 = icmp slt i32 %41, 0
  br i1 %42, label %Scl_LibertyCompare.exit.thread, label %Scl_LibertyItem.exit33

Scl_LibertyItem.exit33:                           ; preds = %Scl_LibertyCompare.exit32.thread
  %43 = load ptr, ptr %12, align 8
  %44 = zext nneg i32 %41 to i64
  %45 = getelementptr inbounds nuw %struct.Scl_Item_t_, ptr %43, i64 %44
  %.not22 = icmp eq ptr %43, null
  br i1 %.not22, label %Scl_LibertyCompare.exit.thread, label %.lr.ph, !llvm.loop !54

Scl_LibertyCompare.exit.thread:                   ; preds = %Scl_LibertyCompare.exit32.thread, %Scl_LibertyItem.exit33, %21, %Scl_LibertyItem.exit26, %13
  %46 = getelementptr inbounds nuw i8, ptr %.01946, i64 32
  %47 = load i32, ptr %46, align 4
  %48 = icmp slt i32 %47, 0
  br i1 %48, label %.loopexit, label %Scl_LibertyItem.exit34

Scl_LibertyItem.exit34:                           ; preds = %Scl_LibertyCompare.exit.thread
  %49 = load ptr, ptr %12, align 8
  %50 = zext nneg i32 %47 to i64
  %51 = getelementptr inbounds nuw %struct.Scl_Item_t_, ptr %49, i64 %50
  %.not = icmp eq ptr %49, null
  br i1 %.not, label %.loopexit, label %13, !llvm.loop !55

.loopexit:                                        ; preds = %Scl_LibertyCompare.exit.thread, %Scl_LibertyItem.exit34, %35, %3, %Scl_LibertyItem.exit
  %.01942 = phi ptr [ null, %Scl_LibertyItem.exit ], [ null, %3 ], [ %.01946, %35 ], [ null, %Scl_LibertyItem.exit34 ], [ null, %Scl_LibertyCompare.exit.thread ]
  ret ptr %.01942
}